ARM GAS  C:\Users\FREDER~1\AppData\Local\Temp\cclxm4Pw.s 			page 1


   1              		.syntax unified
   2              		.cpu cortex-m3
   3              		.fpu softvfp
   4              		.eabi_attribute 20, 1
   5              		.eabi_attribute 21, 1
   6              		.eabi_attribute 23, 3
   7              		.eabi_attribute 24, 1
   8              		.eabi_attribute 25, 1
   9              		.eabi_attribute 26, 1
  10              		.eabi_attribute 30, 1
  11              		.eabi_attribute 34, 1
  12              		.eabi_attribute 18, 4
  13              		.thumb
  14              		.syntax unified
  15              		.file	"main.c"
  16              		.text
  17              	.Ltext0:
  18              		.cfi_sections	.debug_frame
  19              		.section	.text.main,"ax",%progbits
  20              		.align	2
  21              		.global	main
  22              		.thumb
  23              		.thumb_func
  24              		.type	main, %function
  25              	main:
  26              	.LFB63:
  27              		.file 1 "main.c"
   1:main.c        **** /* ========================================
   2:main.c        ****  *
   3:main.c        ****  * Copyright YOUR COMPANY, THE YEAR
   4:main.c        ****  * All Rights Reserved
   5:main.c        ****  * UNPUBLISHED, LICENSED SOFTWARE.
   6:main.c        ****  *
   7:main.c        ****  * CONFIDENTIAL AND PROPRIETARY INFORMATION
   8:main.c        ****  * WHICH IS THE PROPERTY OF your company.
   9:main.c        ****  *
  10:main.c        ****  * ========================================
  11:main.c        **** */
  12:main.c        **** #include "project.h"
  13:main.c        **** #include "cytypes.h"
  14:main.c        **** 
  15:main.c        **** #define SLAVE_ADRESS 0x08
  16:main.c        **** #define READ_BUF_SIZE 64
  17:main.c        **** #define WRITE_BUF_SIZE 64
  18:main.c        **** 
  19:main.c        **** uint8 readBuffer[READ_BUF_SIZE];
  20:main.c        **** uint8 writeBuffer[READ_BUF_SIZE];
  21:main.c        **** 
  22:main.c        **** int main(void)
  23:main.c        **** {
  28              		.loc 1 23 0
  29              		.cfi_startproc
  30              		@ args = 0, pretend = 0, frame = 56
  31              		@ frame_needed = 0, uses_anonymous_args = 0
  32 0000 30B5     		push	{r4, r5, lr}
  33              		.cfi_def_cfa_offset 12
  34              		.cfi_offset 4, -12
ARM GAS  C:\Users\FREDER~1\AppData\Local\Temp\cclxm4Pw.s 			page 2


  35              		.cfi_offset 5, -8
  36              		.cfi_offset 14, -4
  37 0002 8FB0     		sub	sp, sp, #60
  38              		.cfi_def_cfa_offset 72
  24:main.c        ****     CyGlobalIntEnable; /* Enable global interrupts. */
  39              		.loc 1 24 0
  40              		.syntax unified
  41              	@ 24 "main.c" 1
  42 0004 62B6     		CPSIE   i
  43              	@ 0 "" 2
  25:main.c        ****     
  26:main.c        ****     /* Place your initialization/startup code here (e.g. MyInst_Start()) */
  27:main.c        ****     I2C_Start();
  44              		.loc 1 27 0
  45              		.thumb
  46              		.syntax unified
  47 0006 FFF7FEFF 		bl	I2C_Start
  48              	.LVL0:
  28:main.c        ****     UART_Start();
  49              		.loc 1 28 0
  50 000a FFF7FEFF 		bl	UART_Start
  51              	.LVL1:
  29:main.c        ****     
  30:main.c        ****     I2C_SlaveInitReadBuf((uint8 *) readBuffer, READ_BUF_SIZE);
  52              		.loc 1 30 0
  53 000e 4021     		movs	r1, #64
  54 0010 2648     		ldr	r0, .L13
  55 0012 FFF7FEFF 		bl	I2C_SlaveInitReadBuf
  56              	.LVL2:
  31:main.c        ****     I2C_SlaveInitWriteBuf((uint8 *) writeBuffer, WRITE_BUF_SIZE);
  57              		.loc 1 31 0
  58 0016 4021     		movs	r1, #64
  59 0018 2548     		ldr	r0, .L13+4
  60 001a FFF7FEFF 		bl	I2C_SlaveInitWriteBuf
  61              	.LVL3:
  62              	.LBB2:
  32:main.c        ****     
  33:main.c        ****     /* Initializer readBuffer og writeBuffer */
  34:main.c        ****     for (int i = 0; i < READ_BUF_SIZE; i++) {
  63              		.loc 1 34 0
  64 001e 0023     		movs	r3, #0
  65 0020 04E0     		b	.L2
  66              	.LVL4:
  67              	.L3:
  35:main.c        ****         readBuffer[i] = writeBuffer[i];
  68              		.loc 1 35 0 discriminator 3
  69 0022 234A     		ldr	r2, .L13+4
  70 0024 D15C     		ldrb	r1, [r2, r3]	@ zero_extendqisi2
  71 0026 214A     		ldr	r2, .L13
  72 0028 D154     		strb	r1, [r2, r3]
  34:main.c        ****         readBuffer[i] = writeBuffer[i];
  73              		.loc 1 34 0 discriminator 3
  74 002a 0133     		adds	r3, r3, #1
  75              	.LVL5:
  76              	.L2:
  34:main.c        ****         readBuffer[i] = writeBuffer[i];
  77              		.loc 1 34 0 is_stmt 0 discriminator 1
ARM GAS  C:\Users\FREDER~1\AppData\Local\Temp\cclxm4Pw.s 			page 3


  78 002c 3F2B     		cmp	r3, #63
  79 002e F8DD     		ble	.L3
  80 0030 06E0     		b	.L4
  81              	.LVL6:
  82              	.L5:
  83              	.LBE2:
  84              	.LBB3:
  36:main.c        ****     }
  37:main.c        ****     
  38:main.c        ****     for(;;)
  39:main.c        ****     {
  40:main.c        ****         /* Place your application code here. */
  41:main.c        ****         while (0 == (I2C_SlaveStatus() & I2C_SSTAT_WR_CMPT)){ /* Vent på besked fra master */
  42:main.c        ****             UART_PutString("Venter på besked fra master\n\n");
  85              		.loc 1 42 0 is_stmt 1
  86 0032 2048     		ldr	r0, .L13+8
  87 0034 FFF7FEFF 		bl	UART_PutString
  88              	.LVL7:
  43:main.c        ****             CyDelay(500);
  89              		.loc 1 43 0
  90 0038 4FF4FA70 		mov	r0, #500
  91 003c FFF7FEFF 		bl	CyDelay
  92              	.LVL8:
  93              	.L4:
  41:main.c        ****             UART_PutString("Venter på besked fra master\n\n");
  94              		.loc 1 41 0
  95 0040 FFF7FEFF 		bl	I2C_SlaveStatus
  96              	.LVL9:
  97 0044 10F0100F 		tst	r0, #16
  98 0048 F3D0     		beq	.L5
  44:main.c        ****         };
  45:main.c        ****         
  46:main.c        ****         uint8 writeBufferSize = I2C_SlaveGetWriteBufSize();
  99              		.loc 1 46 0
 100 004a FFF7FEFF 		bl	I2C_SlaveGetWriteBufSize
 101              	.LVL10:
 102 004e 0546     		mov	r5, r0
 103              	.LVL11:
 104              	.LBB4:
  47:main.c        ****         for (int i = 0; i < writeBufferSize; i++) {
 105              		.loc 1 47 0
 106 0050 0024     		movs	r4, #0
 107 0052 0AE0     		b	.L6
 108              	.LVL12:
 109              	.L7:
 110              	.LBB5:
  48:main.c        ****             /* Behandling af writeBuffer[i] */
  49:main.c        ****             char msg[50];
  50:main.c        ****             sprintf(msg, "Data[%d]: %d\n", i, writeBuffer[i]); 
 111              		.loc 1 50 0 discriminator 3
 112 0054 164B     		ldr	r3, .L13+4
 113 0056 1B5D     		ldrb	r3, [r3, r4]	@ zero_extendqisi2
 114 0058 2246     		mov	r2, r4
 115 005a 1749     		ldr	r1, .L13+12
 116 005c 01A8     		add	r0, sp, #4
 117 005e FFF7FEFF 		bl	sprintf
 118              	.LVL13:
ARM GAS  C:\Users\FREDER~1\AppData\Local\Temp\cclxm4Pw.s 			page 4


  51:main.c        ****             UART_PutString(msg);
 119              		.loc 1 51 0 discriminator 3
 120 0062 01A8     		add	r0, sp, #4
 121 0064 FFF7FEFF 		bl	UART_PutString
 122              	.LVL14:
 123              	.LBE5:
  47:main.c        ****         for (int i = 0; i < writeBufferSize; i++) {
 124              		.loc 1 47 0 discriminator 3
 125 0068 0134     		adds	r4, r4, #1
 126              	.LVL15:
 127              	.L6:
  47:main.c        ****         for (int i = 0; i < writeBufferSize; i++) {
 128              		.loc 1 47 0 is_stmt 0 discriminator 1
 129 006a AC42     		cmp	r4, r5
 130 006c F2DB     		blt	.L7
 131              	.LBE4:
  52:main.c        ****         }
  53:main.c        ****         
  54:main.c        ****         I2C_SlaveClearWriteBuf();
 132              		.loc 1 54 0 is_stmt 1
 133 006e FFF7FEFF 		bl	I2C_SlaveClearWriteBuf
 134              	.LVL16:
  55:main.c        ****         I2C_SlaveClearWriteStatus();
 135              		.loc 1 55 0
 136 0072 FFF7FEFF 		bl	I2C_SlaveClearWriteStatus
 137              	.LVL17:
  56:main.c        ****         
  57:main.c        ****         while (0 == (I2C_SlaveStatus() & I2C_SSTAT_RD_CMPT)){ /* Vent på at master anmoder om data
 138              		.loc 1 57 0
 139 0076 06E0     		b	.L8
 140              	.L9:
  58:main.c        ****             UART_PutString("Venter på anmodning fra master\n\n");
 141              		.loc 1 58 0
 142 0078 1048     		ldr	r0, .L13+16
 143 007a FFF7FEFF 		bl	UART_PutString
 144              	.LVL18:
  59:main.c        ****             CyDelay(500);
 145              		.loc 1 59 0
 146 007e 4FF4FA70 		mov	r0, #500
 147 0082 FFF7FEFF 		bl	CyDelay
 148              	.LVL19:
 149              	.L8:
  57:main.c        ****             UART_PutString("Venter på anmodning fra master\n\n");
 150              		.loc 1 57 0
 151 0086 FFF7FEFF 		bl	I2C_SlaveStatus
 152              	.LVL20:
 153 008a 10F0010F 		tst	r0, #1
 154 008e F3D0     		beq	.L9
  60:main.c        ****         }
  61:main.c        ****         
  62:main.c        ****         
  63:main.c        ****         if (I2C_SlaveStatus() & I2C_SSTAT_WR_CMPT) {
 155              		.loc 1 63 0
 156 0090 FFF7FEFF 		bl	I2C_SlaveStatus
 157              	.LVL21:
 158 0094 10F0100F 		tst	r0, #16
 159 0098 02D0     		beq	.L10
ARM GAS  C:\Users\FREDER~1\AppData\Local\Temp\cclxm4Pw.s 			page 5


  64:main.c        ****             UART_PutString("Data sendt");
 160              		.loc 1 64 0
 161 009a 0948     		ldr	r0, .L13+20
 162 009c FFF7FEFF 		bl	UART_PutString
 163              	.LVL22:
 164              	.L10:
  65:main.c        ****         }
  66:main.c        ****         
  67:main.c        ****         I2C_SlaveClearWriteBuf();
 165              		.loc 1 67 0
 166 00a0 FFF7FEFF 		bl	I2C_SlaveClearWriteBuf
 167              	.LVL23:
  68:main.c        ****         I2C_SlaveClearWriteStatus();
 168              		.loc 1 68 0
 169 00a4 FFF7FEFF 		bl	I2C_SlaveClearWriteStatus
 170              	.LVL24:
 171              	.LBE3:
  69:main.c        ****         
  70:main.c        ****     }
 172              		.loc 1 70 0
 173 00a8 CAE7     		b	.L4
 174              	.L14:
 175 00aa 00BF     		.align	2
 176              	.L13:
 177 00ac 00000000 		.word	readBuffer
 178 00b0 00000000 		.word	writeBuffer
 179 00b4 00000000 		.word	.LC0
 180 00b8 20000000 		.word	.LC1
 181 00bc 30000000 		.word	.LC2
 182 00c0 54000000 		.word	.LC3
 183              		.cfi_endproc
 184              	.LFE63:
 185              		.size	main, .-main
 186              		.comm	writeBuffer,64,4
 187              		.comm	readBuffer,64,4
 188              		.section	.rodata.str1.4,"aMS",%progbits,1
 189              		.align	2
 190              	.LC0:
 191 0000 56656E74 		.ascii	"Venter p\303\245 besked fra master\012\012\000"
 191      65722070 
 191      C3A52062 
 191      65736B65 
 191      64206672 
 192 001f 00       		.space	1
 193              	.LC1:
 194 0020 44617461 		.ascii	"Data[%d]: %d\012\000"
 194      5B25645D 
 194      3A202564 
 194      0A00
 195 002e 0000     		.space	2
 196              	.LC2:
 197 0030 56656E74 		.ascii	"Venter p\303\245 anmodning fra master\012\012\000"
 197      65722070 
 197      C3A52061 
 197      6E6D6F64 
 197      6E696E67 
 198 0052 0000     		.space	2
ARM GAS  C:\Users\FREDER~1\AppData\Local\Temp\cclxm4Pw.s 			page 6


 199              	.LC3:
 200 0054 44617461 		.ascii	"Data sendt\000"
 200      2073656E 
 200      647400
 201              		.text
 202              	.Letext0:
 203              		.file 2 "c:\\program files (x86)\\cypress\\psoc creator\\4.4\\psoc creator\\import\\gnu\\arm\\5.4.
 204              		.file 3 "c:\\program files (x86)\\cypress\\psoc creator\\4.4\\psoc creator\\import\\gnu\\arm\\5.4.
 205              		.file 4 "Generated_Source\\PSoC5/cytypes.h"
 206              		.file 5 "Generated_Source\\PSoC5/core_cm3.h"
 207              		.file 6 "<built-in>"
 208              		.file 7 "Generated_Source\\PSoC5/UART.h"
 209              		.file 8 "Generated_Source\\PSoC5/CyLib.h"
 210              		.file 9 "Generated_Source\\PSoC5/I2C.h"